; ModuleID = '13/666.c'
source_filename = "13/666.c"
target datalayout = "e-m:e-p270:32:32-p271:32:32-p272:64:64-i64:64-f80:128-n8:16:32:64-S128"
target triple = "x86_64-pc-linux-gnu"

@.str = private unnamed_addr constant [3 x i8] c"%d\00", align 1
@.str.1 = private unnamed_addr constant [4 x i8] c" %d\00", align 1
@.str.2 = private unnamed_addr constant [2 x i8] c"\0A\00", align 1

; Function Attrs: noinline nounwind uwtable
define dso_local i32 @main() #0 {
  %1 = alloca i32, align 4
  %2 = alloca i32, align 4
  %3 = alloca i32, align 4
  %4 = alloca i32, align 4
  %5 = alloca i32, align 4
  %6 = alloca i32, align 4
  %7 = alloca [20000 x i32], align 16
  %8 = alloca [20000 x i32], align 16
  %9 = alloca i32, align 4
  store i32 0, i32* %1, align 4
  store i32 1, i32* %4, align 4
  %10 = call i32 (i8*, ...) @__isoc99_scanf(i8* getelementptr inbounds ([3 x i8], [3 x i8]* @.str, i64 0, i64 0), i32* %6)
  store i32 0, i32* %2, align 4
  br label %11

11:                                               ; preds = %20, %0
  %12 = load i32, i32* %2, align 4
  %13 = load i32, i32* %6, align 4
  %14 = icmp slt i32 %12, %13
  br i1 %14, label %15, label %23

15:                                               ; preds = %11
  %16 = load i32, i32* %2, align 4
  %17 = sext i32 %16 to i64
  %18 = getelementptr inbounds [20000 x i32], [20000 x i32]* %8, i64 0, i64 %17
  %19 = call i32 (i8*, ...) @__isoc99_scanf(i8* getelementptr inbounds ([3 x i8], [3 x i8]* @.str, i64 0, i64 0), i32* %18)
  br label %20

20:                                               ; preds = %15
  %21 = load i32, i32* %2, align 4
  %22 = add nsw i32 %21, 1
  store i32 %22, i32* %2, align 4
  br label %11

23:                                               ; preds = %11
  %24 = getelementptr inbounds [20000 x i32], [20000 x i32]* %8, i64 0, i64 0
  %25 = load i32, i32* %24, align 16
  %26 = getelementptr inbounds [20000 x i32], [20000 x i32]* %7, i64 0, i64 0
  store i32 %25, i32* %26, align 16
  store i32 0, i32* %9, align 4
  store i32 1, i32* %2, align 4
  br label %27

27:                                               ; preds = %66, %23
  %28 = load i32, i32* %2, align 4
  %29 = load i32, i32* %6, align 4
  %30 = icmp slt i32 %28, %29
  br i1 %30, label %31, label %69

31:                                               ; preds = %27
  store i32 1, i32* %5, align 4
  store i32 0, i32* %3, align 4
  br label %32

32:                                               ; preds = %48, %31
  %33 = load i32, i32* %3, align 4
  %34 = load i32, i32* %9, align 4
  %35 = icmp sle i32 %33, %34
  br i1 %35, label %36, label %51

36:                                               ; preds = %32
  %37 = load i32, i32* %5, align 4
  %38 = load i32, i32* %2, align 4
  %39 = sext i32 %38 to i64
  %40 = getelementptr inbounds [20000 x i32], [20000 x i32]* %8, i64 0, i64 %39
  %41 = load i32, i32* %40, align 4
  %42 = load i32, i32* %3, align 4
  %43 = sext i32 %42 to i64
  %44 = getelementptr inbounds [20000 x i32], [20000 x i32]* %7, i64 0, i64 %43
  %45 = load i32, i32* %44, align 4
  %46 = sub nsw i32 %41, %45
  %47 = mul nsw i32 %37, %46
  store i32 %47, i32* %5, align 4
  br label %48

48:                                               ; preds = %36
  %49 = load i32, i32* %3, align 4
  %50 = add nsw i32 %49, 1
  store i32 %50, i32* %3, align 4
  br label %32

51:                                               ; preds = %32
  %52 = load i32, i32* %5, align 4
  %53 = icmp ne i32 %52, 0
  br i1 %53, label %54, label %65

54:                                               ; preds = %51
  %55 = load i32, i32* %2, align 4
  %56 = sext i32 %55 to i64
  %57 = getelementptr inbounds [20000 x i32], [20000 x i32]* %8, i64 0, i64 %56
  %58 = load i32, i32* %57, align 4
  %59 = load i32, i32* %9, align 4
  %60 = add nsw i32 %59, 1
  %61 = sext i32 %60 to i64
  %62 = getelementptr inbounds [20000 x i32], [20000 x i32]* %7, i64 0, i64 %61
  store i32 %58, i32* %62, align 4
  %63 = load i32, i32* %9, align 4
  %64 = add nsw i32 %63, 1
  store i32 %64, i32* %9, align 4
  br label %65

65:                                               ; preds = %54, %51
  br label %66

66:                                               ; preds = %65
  %67 = load i32, i32* %2, align 4
  %68 = add nsw i32 %67, 1
  store i32 %68, i32* %2, align 4
  br label %27

69:                                               ; preds = %27
  %70 = getelementptr inbounds [20000 x i32], [20000 x i32]* %7, i64 0, i64 0
  %71 = load i32, i32* %70, align 16
  %72 = call i32 (i8*, ...) @printf(i8* getelementptr inbounds ([3 x i8], [3 x i8]* @.str, i64 0, i64 0), i32 %71)
  store i32 1, i32* %2, align 4
  br label %73

73:                                               ; preds = %83, %69
  %74 = load i32, i32* %2, align 4
  %75 = load i32, i32* %9, align 4
  %76 = icmp sle i32 %74, %75
  br i1 %76, label %77, label %86

77:                                               ; preds = %73
  %78 = load i32, i32* %2, align 4
  %79 = sext i32 %78 to i64
  %80 = getelementptr inbounds [20000 x i32], [20000 x i32]* %7, i64 0, i64 %79
  %81 = load i32, i32* %80, align 4
  %82 = call i32 (i8*, ...) @printf(i8* getelementptr inbounds ([4 x i8], [4 x i8]* @.str.1, i64 0, i64 0), i32 %81)
  br label %83

83:                                               ; preds = %77
  %84 = load i32, i32* %2, align 4
  %85 = add nsw i32 %84, 1
  store i32 %85, i32* %2, align 4
  br label %73

86:                                               ; preds = %73
  %87 = call i32 (i8*, ...) @printf(i8* getelementptr inbounds ([2 x i8], [2 x i8]* @.str.2, i64 0, i64 0))
  ret i32 0
}

declare dso_local i32 @__isoc99_scanf(i8*, ...) #1

declare dso_local i32 @printf(i8*, ...) #1


!llvm.module.flags = !{!0}
!llvm.ident = !{!1}

!0 = !{i32 1, !"wchar_size", i32 4}
!1 = !{!"clang version 10.0.0-4ubuntu1 "}
