; ModuleID = 'source-C-CXX/12/666.c'
source_filename = "source-C-CXX/12/666.c"
target datalayout = "e-m:e-p270:32:32-p271:32:32-p272:64:64-i64:64-f80:128-n8:16:32:64-S128"
target triple = "x86_64-pc-linux-gnu"

@.str = private unnamed_addr constant [3 x i8] c"%d\00", align 1
@.str.1 = private unnamed_addr constant [4 x i8] c" %d\00", align 1

; Function Attrs: nofree nounwind sspstrong uwtable
define dso_local i32 @main() local_unnamed_addr #0 {
  %1 = alloca i32, align 4
  %2 = alloca [20000 x i32], align 16
  %3 = alloca [20000 x i32], align 16
  %4 = bitcast i32* %1 to i8*
  call void @llvm.lifetime.start.p0i8(i64 4, i8* nonnull %4) #5
  %5 = call i32 (i8*, ...) @__isoc99_scanf(i8* getelementptr inbounds ([3 x i8], [3 x i8]* @.str, i64 0, i64 0), i32* nonnull %1)
  %6 = bitcast [20000 x i32]* %2 to i8*
  call void @llvm.lifetime.start.p0i8(i64 80000, i8* nonnull %6) #5
  %7 = bitcast [20000 x i32]* %3 to i8*
  call void @llvm.lifetime.start.p0i8(i64 80000, i8* nonnull %7) #5
  %8 = load i32, i32* %1, align 4, !tbaa !5
  %9 = icmp sgt i32 %8, 0
  br i1 %9, label %10, label %126

10:                                               ; preds = %0, %10
  %11 = phi i64 [ %14, %10 ], [ 0, %0 ]
  %12 = getelementptr inbounds [20000 x i32], [20000 x i32]* %3, i64 0, i64 %11
  %13 = call i32 (i8*, ...) @__isoc99_scanf(i8* getelementptr inbounds ([3 x i8], [3 x i8]* @.str, i64 0, i64 0), i32* nonnull %12)
  %14 = add nuw nsw i64 %11, 1
  %15 = load i32, i32* %1, align 4, !tbaa !5
  %16 = sext i32 %15 to i64
  %17 = icmp slt i64 %14, %16
  br i1 %17, label %10, label %18, !llvm.loop !9

18:                                               ; preds = %10
  %19 = getelementptr inbounds [20000 x i32], [20000 x i32]* %3, i64 0, i64 0
  %20 = load i32, i32* %19, align 16, !tbaa !5
  %21 = getelementptr inbounds [20000 x i32], [20000 x i32]* %2, i64 0, i64 0
  store i32 %20, i32* %21, align 16, !tbaa !5
  %22 = icmp sgt i32 %15, 1
  br i1 %22, label %23, label %126

23:                                               ; preds = %18
  %24 = zext i32 %15 to i64
  br label %25

25:                                               ; preds = %23, %122
  %26 = phi i64 [ 1, %23 ], [ %124, %122 ]
  %27 = phi i32 [ 0, %23 ], [ %123, %122 ]
  %28 = icmp slt i32 %27, 0
  br i1 %28, label %116, label %29

29:                                               ; preds = %25
  %30 = getelementptr inbounds [20000 x i32], [20000 x i32]* %3, i64 0, i64 %26
  %31 = load i32, i32* %30, align 4, !tbaa !5
  %32 = add nuw i32 %27, 1
  %33 = zext i32 %32 to i64
  %34 = icmp ult i32 %27, 7
  br i1 %34, label %101, label %35

35:                                               ; preds = %29
  %36 = and i64 %33, 4294967288
  %37 = insertelement <4 x i32> poison, i32 %31, i32 0
  %38 = shufflevector <4 x i32> %37, <4 x i32> poison, <4 x i32> zeroinitializer
  %39 = insertelement <4 x i32> poison, i32 %31, i32 0
  %40 = shufflevector <4 x i32> %39, <4 x i32> poison, <4 x i32> zeroinitializer
  %41 = add nsw i64 %36, -8
  %42 = lshr exact i64 %41, 3
  %43 = add nuw nsw i64 %42, 1
  %44 = and i64 %43, 1
  %45 = icmp eq i64 %41, 0
  br i1 %45, label %77, label %46

46:                                               ; preds = %35
  %47 = and i64 %43, 4611686018427387902
  br label %48

48:                                               ; preds = %48, %46
  %49 = phi i64 [ 0, %46 ], [ %74, %48 ]
  %50 = phi <4 x i32> [ <i32 1, i32 1, i32 1, i32 1>, %46 ], [ %72, %48 ]
  %51 = phi <4 x i32> [ <i32 1, i32 1, i32 1, i32 1>, %46 ], [ %73, %48 ]
  %52 = phi i64 [ %47, %46 ], [ %75, %48 ]
  %53 = getelementptr inbounds [20000 x i32], [20000 x i32]* %2, i64 0, i64 %49
  %54 = bitcast i32* %53 to <4 x i32>*
  %55 = load <4 x i32>, <4 x i32>* %54, align 16, !tbaa !5
  %56 = getelementptr inbounds i32, i32* %53, i64 4
  %57 = bitcast i32* %56 to <4 x i32>*
  %58 = load <4 x i32>, <4 x i32>* %57, align 16, !tbaa !5
  %59 = sub nsw <4 x i32> %38, %55
  %60 = sub nsw <4 x i32> %40, %58
  %61 = mul <4 x i32> %59, %50
  %62 = mul <4 x i32> %60, %51
  %63 = or i64 %49, 8
  %64 = getelementptr inbounds [20000 x i32], [20000 x i32]* %2, i64 0, i64 %63
  %65 = bitcast i32* %64 to <4 x i32>*
  %66 = load <4 x i32>, <4 x i32>* %65, align 16, !tbaa !5
  %67 = getelementptr inbounds i32, i32* %64, i64 4
  %68 = bitcast i32* %67 to <4 x i32>*
  %69 = load <4 x i32>, <4 x i32>* %68, align 16, !tbaa !5
  %70 = sub nsw <4 x i32> %38, %66
  %71 = sub nsw <4 x i32> %40, %69
  %72 = mul <4 x i32> %70, %61
  %73 = mul <4 x i32> %71, %62
  %74 = add nuw i64 %49, 16
  %75 = add i64 %52, -2
  %76 = icmp eq i64 %75, 0
  br i1 %76, label %77, label %48, !llvm.loop !11

77:                                               ; preds = %48, %35
  %78 = phi <4 x i32> [ undef, %35 ], [ %72, %48 ]
  %79 = phi <4 x i32> [ undef, %35 ], [ %73, %48 ]
  %80 = phi i64 [ 0, %35 ], [ %74, %48 ]
  %81 = phi <4 x i32> [ <i32 1, i32 1, i32 1, i32 1>, %35 ], [ %72, %48 ]
  %82 = phi <4 x i32> [ <i32 1, i32 1, i32 1, i32 1>, %35 ], [ %73, %48 ]
  %83 = icmp eq i64 %44, 0
  br i1 %83, label %95, label %84

84:                                               ; preds = %77
  %85 = getelementptr inbounds [20000 x i32], [20000 x i32]* %2, i64 0, i64 %80
  %86 = getelementptr inbounds i32, i32* %85, i64 4
  %87 = bitcast i32* %86 to <4 x i32>*
  %88 = load <4 x i32>, <4 x i32>* %87, align 16, !tbaa !5
  %89 = sub nsw <4 x i32> %40, %88
  %90 = mul <4 x i32> %89, %82
  %91 = bitcast i32* %85 to <4 x i32>*
  %92 = load <4 x i32>, <4 x i32>* %91, align 16, !tbaa !5
  %93 = sub nsw <4 x i32> %38, %92
  %94 = mul <4 x i32> %93, %81
  br label %95

95:                                               ; preds = %77, %84
  %96 = phi <4 x i32> [ %78, %77 ], [ %94, %84 ]
  %97 = phi <4 x i32> [ %79, %77 ], [ %90, %84 ]
  %98 = mul <4 x i32> %97, %96
  %99 = call i32 @llvm.vector.reduce.mul.v4i32(<4 x i32> %98)
  %100 = icmp eq i64 %36, %33
  br i1 %100, label %113, label %101

101:                                              ; preds = %29, %95
  %102 = phi i64 [ 0, %29 ], [ %36, %95 ]
  %103 = phi i32 [ 1, %29 ], [ %99, %95 ]
  br label %104

104:                                              ; preds = %101, %104
  %105 = phi i64 [ %111, %104 ], [ %102, %101 ]
  %106 = phi i32 [ %110, %104 ], [ %103, %101 ]
  %107 = getelementptr inbounds [20000 x i32], [20000 x i32]* %2, i64 0, i64 %105
  %108 = load i32, i32* %107, align 4, !tbaa !5
  %109 = sub nsw i32 %31, %108
  %110 = mul nsw i32 %109, %106
  %111 = add nuw nsw i64 %105, 1
  %112 = icmp eq i64 %111, %33
  br i1 %112, label %113, label %104, !llvm.loop !13

113:                                              ; preds = %104, %95
  %114 = phi i32 [ %99, %95 ], [ %110, %104 ]
  %115 = icmp eq i32 %114, 0
  br i1 %115, label %122, label %116

116:                                              ; preds = %25, %113
  %117 = getelementptr inbounds [20000 x i32], [20000 x i32]* %3, i64 0, i64 %26
  %118 = load i32, i32* %117, align 4, !tbaa !5
  %119 = add nsw i32 %27, 1
  %120 = sext i32 %119 to i64
  %121 = getelementptr inbounds [20000 x i32], [20000 x i32]* %2, i64 0, i64 %120
  store i32 %118, i32* %121, align 4, !tbaa !5
  br label %122

122:                                              ; preds = %113, %116
  %123 = phi i32 [ %119, %116 ], [ %27, %113 ]
  %124 = add nuw nsw i64 %26, 1
  %125 = icmp eq i64 %124, %24
  br i1 %125, label %129, label %25, !llvm.loop !15

126:                                              ; preds = %0, %18
  %127 = phi i32 [ %20, %18 ], [ undef, %0 ]
  %128 = call i32 (i8*, ...) @printf(i8* nonnull dereferenceable(1) getelementptr inbounds ([3 x i8], [3 x i8]* @.str, i64 0, i64 0), i32 %127)
  br label %143

129:                                              ; preds = %122
  %130 = load i32, i32* %21, align 16, !tbaa !5
  %131 = call i32 (i8*, ...) @printf(i8* nonnull dereferenceable(1) getelementptr inbounds ([3 x i8], [3 x i8]* @.str, i64 0, i64 0), i32 %130)
  %132 = icmp slt i32 %123, 1
  br i1 %132, label %143, label %133

133:                                              ; preds = %129
  %134 = add nuw i32 %123, 1
  %135 = zext i32 %134 to i64
  br label %136

136:                                              ; preds = %133, %136
  %137 = phi i64 [ 1, %133 ], [ %141, %136 ]
  %138 = getelementptr inbounds [20000 x i32], [20000 x i32]* %2, i64 0, i64 %137
  %139 = load i32, i32* %138, align 4, !tbaa !5
  %140 = call i32 (i8*, ...) @printf(i8* nonnull dereferenceable(1) getelementptr inbounds ([4 x i8], [4 x i8]* @.str.1, i64 0, i64 0), i32 %139)
  %141 = add nuw nsw i64 %137, 1
  %142 = icmp eq i64 %141, %135
  br i1 %142, label %143, label %136, !llvm.loop !16

143:                                              ; preds = %136, %126, %129
  %144 = call i32 @putchar(i32 10)
  call void @llvm.lifetime.end.p0i8(i64 80000, i8* nonnull %7) #5
  call void @llvm.lifetime.end.p0i8(i64 80000, i8* nonnull %6) #5
  call void @llvm.lifetime.end.p0i8(i64 4, i8* nonnull %4) #5
  ret i32 0
}

; Function Attrs: argmemonly mustprogress nofree nosync nounwind willreturn
declare void @llvm.lifetime.start.p0i8(i64 immarg, i8* nocapture) #1

; Function Attrs: nofree nounwind
declare noundef i32 @__isoc99_scanf(i8* nocapture noundef readonly, ...) local_unnamed_addr #2

; Function Attrs: nofree nounwind
declare noundef i32 @printf(i8* nocapture noundef readonly, ...) local_unnamed_addr #2

; Function Attrs: argmemonly mustprogress nofree nosync nounwind willreturn
declare void @llvm.lifetime.end.p0i8(i64 immarg, i8* nocapture) #1

; Function Attrs: nofree nounwind
declare noundef i32 @putchar(i32 noundef) local_unnamed_addr #3

; Function Attrs: nofree nosync nounwind readnone willreturn
declare i32 @llvm.vector.reduce.mul.v4i32(<4 x i32>) #4


!llvm.module.flags = !{!0, !1, !2, !3}
!llvm.ident = !{!4}

!0 = !{i32 1, !"wchar_size", i32 4}
!1 = !{i32 7, !"PIC Level", i32 2}
!2 = !{i32 7, !"PIE Level", i32 2}
!3 = !{i32 7, !"uwtable", i32 1}
!4 = !{!"clang version 13.0.0"}
!5 = !{!6, !6, i64 0}
!6 = !{!"int", !7, i64 0}
!7 = !{!"omnipotent char", !8, i64 0}
!8 = !{!"Simple C/C++ TBAA"}
!9 = distinct !{!9, !10}
!10 = !{!"llvm.loop.mustprogress"}
!11 = distinct !{!11, !10, !12}
!12 = !{!"llvm.loop.isvectorized", i32 1}
!13 = distinct !{!13, !10, !14, !12}
!14 = !{!"llvm.loop.unroll.runtime.disable"}
!15 = distinct !{!15, !10}
!16 = distinct !{!16, !10}
